; Function Attrs: mustprogress uwtable
define noundef i32 @_ZNK2cv17CascadeClassifier14getFeatureTypeEv(ptr noundef nonnull readonly align 8 captures(none) dereferenceable(16) %0) local_unnamed_addr #5 align 2 personality ptr @__gxx_personality_v0 {
  %2 = alloca %"class.std::__cxx11::basic_string", align 8
  %3 = alloca %"class.std::allocator.37", align 1
  %4 = load ptr, ptr %0, align 8, !tbaa !488
  %5 = icmp eq ptr %4, null
  br i1 %5, label %_ZNK2cv17CascadeClassifier5emptyEv.exit.thread, label %_ZNK2cv17CascadeClassifier5emptyEv.exit

_ZNK2cv17CascadeClassifier5emptyEv.exit:          ; preds = %1
  %6 = load ptr, ptr %4, align 8, !tbaa !80
  %7 = getelementptr inbounds nuw i8, ptr %6, i64 40
  %8 = load ptr, ptr %7, align 8
  %9 = tail call noundef zeroext i1 %8(ptr noundef nonnull align 8 dereferenceable(8) %4)
  br i1 %9, label %_ZNK2cv17CascadeClassifier5emptyEv.exit.thread, label %19

_ZNK2cv17CascadeClassifier5emptyEv.exit.thread:   ; preds = %1, %_ZNK2cv17CascadeClassifier5emptyEv.exit
  call void @llvm.lifetime.start.p0(i64 32, ptr nonnull %2) #32
  call void @llvm.lifetime.start.p0(i64 1, ptr nonnull %3) #32
  call void @_ZNSt7__cxx1112basic_stringIcSt11char_traitsIcESaIcEEC2EPKcRKS3_(ptr noundef nonnull align 8 dereferenceable(32) %2, ptr noundef nonnull @.str.65, ptr noundef nonnull align 1 dereferenceable(1) %3)
  invoke void @_ZN2cv5errorEiRKNSt7__cxx1112basic_stringIcSt11char_traitsIcESaIcEEEPKcS9_i(i32 noundef -215, ptr noundef nonnull align 8 dereferenceable(32) %2, ptr noundef nonnull @__func__._ZNK2cv17CascadeClassifier14getFeatureTypeEv, ptr noundef nonnull @.str.1, i32 noundef 1741) #33
          to label %10 unwind label %11

10:                                               ; preds = %_ZNK2cv17CascadeClassifier5emptyEv.exit.thread
  unreachable

11:                                               ; preds = %_ZNK2cv17CascadeClassifier5emptyEv.exit.thread
  %12 = landingpad { ptr, i32 }
          cleanup
  %13 = load ptr, ptr %2, align 8, !tbaa !57
  %14 = getelementptr inbounds nuw i8, ptr %2, i64 16
  %15 = icmp eq ptr %13, %14
  br i1 %15, label %_ZNKSt7__cxx1112basic_stringIcSt11char_traitsIcESaIcEE11_M_is_localEv.exit.thread.i.i, label %_ZNKSt7__cxx1112basic_stringIcSt11char_traitsIcESaIcEE11_M_is_localEv.exit.i.i

_ZNKSt7__cxx1112basic_stringIcSt11char_traitsIcESaIcEE11_M_is_localEv.exit.thread.i.i: ; preds = %11
  %16 = getelementptr inbounds nuw i8, ptr %2, i64 8
  %17 = load i64, ptr %16, align 8, !tbaa !62
  %18 = icmp ult i64 %17, 16
  call void @llvm.assume(i1 %18)
  br label %_ZNSt7__cxx1112basic_stringIcSt11char_traitsIcESaIcEED2Ev.exit

_ZNKSt7__cxx1112basic_stringIcSt11char_traitsIcESaIcEE11_M_is_localEv.exit.i.i: ; preds = %11
  call void @_ZdlPv(ptr noundef %13) #35
  br label %_ZNSt7__cxx1112basic_stringIcSt11char_traitsIcESaIcEED2Ev.exit

_ZNSt7__cxx1112basic_stringIcSt11char_traitsIcESaIcEED2Ev.exit: ; preds = %_ZNKSt7__cxx1112basic_stringIcSt11char_traitsIcESaIcEE11_M_is_localEv.exit.i.i, %_ZNKSt7__cxx1112basic_stringIcSt11char_traitsIcESaIcEE11_M_is_localEv.exit.thread.i.i
  call void @llvm.lifetime.end.p0(i64 1, ptr nonnull %3) #32
  call void @llvm.lifetime.end.p0(i64 32, ptr nonnull %2) #32
  resume { ptr, i32 } %12

19:                                               ; preds = %_ZNK2cv17CascadeClassifier5emptyEv.exit
  %20 = load ptr, ptr %0, align 8, !tbaa !488
  %21 = load ptr, ptr %20, align 8, !tbaa !80
  %22 = getelementptr inbounds nuw i8, ptr %21, i64 112
  %23 = load ptr, ptr %22, align 8
  %24 = tail call noundef i32 %23(ptr noundef nonnull align 8 dereferenceable(8) %20)
  ret i32 %24
}